target datalayout = "e-m:e-p270:32:32-p271:32:32-p272:64:64-i64:64-i128:128-f80:128-n8:16:32:64-S128"
target triple = "x86_64-pc-linux-gnu"

%struct.FFOutputFormat = type { %struct.AVOutputFormat, i32, i32, ptr, ptr, ptr, ptr, ptr, ptr, ptr, ptr, ptr, ptr, ptr, ptr }
%struct.AVOutputFormat = type { ptr, ptr, ptr, ptr, i32, i32, i32, i32, ptr, ptr }
%struct.AVFormatContext = type { ptr, ptr, ptr, ptr, ptr, i32, i32, ptr, i32, ptr, i32, ptr, ptr, i64, i64, i64, i32, i32, i32, i64, i64, ptr, i32, i32, ptr, i32, i32, i32, i32, ptr, i64, i32, i32, %struct.AVIOInterruptCB, i32, i32, i32, i32, i64, i32, i32, i32, i32, i32, i32, i32, i32, i32, i32, i32, i32, i64, i32, i32, i32, i32, i32, ptr, ptr, ptr, ptr, i32, ptr, ptr, ptr, ptr, i32, ptr, ptr, i64, ptr, ptr, ptr, i64 }
%struct.AVIOInterruptCB = type { ptr, ptr }
%struct.CRCState = type { i32 }
%struct.AVPacket = type { ptr, i64, i64, ptr, i32, i32, i32, ptr, i32, i64, i64, ptr, ptr, %struct.AVRational }
%struct.AVRational = type { i32, i32 }

@.str = private unnamed_addr constant [4 x i8] c"crc\00", align 1
@.str.1 = private unnamed_addr constant [12 x i8] c"CRC testing\00", align 1
@ff_crc_muxer = constant %struct.FFOutputFormat { %struct.AVOutputFormat { ptr @.str, ptr @.str.1, ptr null, ptr null, i32 65536, i32 13, i32 0, i32 128, ptr null, ptr null }, i32 4, i32 0, ptr null, ptr @crc_write_packet, ptr @crc_write_trailer, ptr null, ptr null, ptr null, ptr null, ptr null, ptr null, ptr @crc_init, ptr null, ptr null }, align 8
@.str.2 = private unnamed_addr constant [12 x i8] c"CRC=0x%08x\0A\00", align 1

; Function Attrs: nounwind uwtable
define internal i32 @crc_write_packet(ptr noundef %0, ptr noundef %1) #0 {
  %3 = alloca ptr, align 8
  %4 = alloca ptr, align 8
  %5 = alloca ptr, align 8
  store ptr %0, ptr %3, align 8, !tbaa !4
  store ptr %1, ptr %4, align 8, !tbaa !9
  call void @llvm.lifetime.start.p0(i64 8, ptr %5) #4
  %6 = load ptr, ptr %3, align 8, !tbaa !4
  %7 = getelementptr inbounds nuw %struct.AVFormatContext, ptr %6, i32 0, i32 3
  %8 = load ptr, ptr %7, align 8, !tbaa !11
  store ptr %8, ptr %5, align 8, !tbaa !28
  %9 = load ptr, ptr %5, align 8, !tbaa !28
  %10 = getelementptr inbounds nuw %struct.CRCState, ptr %9, i32 0, i32 0
  %11 = load i32, ptr %10, align 4, !tbaa !30
  %12 = load ptr, ptr %4, align 8, !tbaa !9
  %13 = getelementptr inbounds nuw %struct.AVPacket, ptr %12, i32 0, i32 3
  %14 = load ptr, ptr %13, align 8, !tbaa !32
  %15 = load ptr, ptr %4, align 8, !tbaa !9
  %16 = getelementptr inbounds nuw %struct.AVPacket, ptr %15, i32 0, i32 4
  %17 = load i32, ptr %16, align 8, !tbaa !37
  %18 = sext i32 %17 to i64
  %19 = call i32 @av_adler32_update(i32 noundef %11, ptr noundef %14, i64 noundef %18) #5
  %20 = load ptr, ptr %5, align 8, !tbaa !28
  %21 = getelementptr inbounds nuw %struct.CRCState, ptr %20, i32 0, i32 0
  store i32 %19, ptr %21, align 4, !tbaa !30
  call void @llvm.lifetime.end.p0(i64 8, ptr %5) #4
  ret i32 0
}

; Function Attrs: nounwind uwtable
define internal i32 @crc_write_trailer(ptr noundef %0) #0 {
  %2 = alloca ptr, align 8
  %3 = alloca ptr, align 8
  store ptr %0, ptr %2, align 8, !tbaa !4
  call void @llvm.lifetime.start.p0(i64 8, ptr %3) #4
  %4 = load ptr, ptr %2, align 8, !tbaa !4
  %5 = getelementptr inbounds nuw %struct.AVFormatContext, ptr %4, i32 0, i32 3
  %6 = load ptr, ptr %5, align 8, !tbaa !11
  store ptr %6, ptr %3, align 8, !tbaa !28
  %7 = load ptr, ptr %2, align 8, !tbaa !4
  %8 = getelementptr inbounds nuw %struct.AVFormatContext, ptr %7, i32 0, i32 4
  %9 = load ptr, ptr %8, align 8, !tbaa !38
  %10 = load ptr, ptr %3, align 8, !tbaa !28
  %11 = getelementptr inbounds nuw %struct.CRCState, ptr %10, i32 0, i32 0
  %12 = load i32, ptr %11, align 4, !tbaa !30
  %13 = call i32 (ptr, ptr, ...) @avio_printf(ptr noundef %9, ptr noundef @.str.2, i32 noundef %12)
  call void @llvm.lifetime.end.p0(i64 8, ptr %3) #4
  ret i32 0
}

; Function Attrs: nounwind uwtable
define internal i32 @crc_init(ptr noundef %0) #0 {
  %2 = alloca ptr, align 8
  %3 = alloca ptr, align 8
  store ptr %0, ptr %2, align 8, !tbaa !4
  call void @llvm.lifetime.start.p0(i64 8, ptr %3) #4
  %4 = load ptr, ptr %2, align 8, !tbaa !4
  %5 = getelementptr inbounds nuw %struct.AVFormatContext, ptr %4, i32 0, i32 3
  %6 = load ptr, ptr %5, align 8, !tbaa !11
  store ptr %6, ptr %3, align 8, !tbaa !28
  %7 = load ptr, ptr %3, align 8, !tbaa !28
  %8 = getelementptr inbounds nuw %struct.CRCState, ptr %7, i32 0, i32 0
  store i32 1, ptr %8, align 4, !tbaa !30
  call void @llvm.lifetime.end.p0(i64 8, ptr %3) #4
  ret i32 0
}

; Function Attrs: nocallback nofree nosync nounwind willreturn memory(argmem: readwrite)
declare void @llvm.lifetime.start.p0(i64 immarg, ptr captures(none)) #1

; Function Attrs: nounwind willreturn memory(read)
declare i32 @av_adler32_update(i32 noundef, ptr noundef, i64 noundef) #2

; Function Attrs: nocallback nofree nosync nounwind willreturn memory(argmem: readwrite)
declare void @llvm.lifetime.end.p0(i64 immarg, ptr captures(none)) #1

declare i32 @avio_printf(ptr noundef, ptr noundef, ...) #3


!llvm.module.flags = !{!0, !1, !2, !3}

!0 = !{i32 1, !"wchar_size", i32 4}
!1 = !{i32 8, !"PIC Level", i32 2}
!2 = !{i32 7, !"uwtable", i32 2}
!3 = !{i32 1, !"override-stack-alignment", i32 16}
!4 = !{!5, !5, i64 0}
!5 = !{!"p1 _ZTS15AVFormatContext", !6, i64 0}
!6 = !{!"any pointer", !7, i64 0}
!7 = !{!"omnipotent char", !8, i64 0}
!8 = !{!"Simple C/C++ TBAA"}
!9 = !{!10, !10, i64 0}
!10 = !{!"p1 _ZTS8AVPacket", !6, i64 0}
!11 = !{!12, !6, i64 24}
!12 = !{!"AVFormatContext", !13, i64 0, !14, i64 8, !15, i64 16, !6, i64 24, !16, i64 32, !17, i64 40, !17, i64 44, !18, i64 48, !17, i64 56, !20, i64 64, !17, i64 72, !21, i64 80, !22, i64 88, !23, i64 96, !23, i64 104, !23, i64 112, !17, i64 120, !17, i64 124, !17, i64 128, !23, i64 136, !23, i64 144, !22, i64 152, !17, i64 160, !17, i64 164, !24, i64 168, !17, i64 176, !17, i64 180, !17, i64 184, !17, i64 188, !25, i64 192, !23, i64 200, !17, i64 208, !17, i64 212, !26, i64 216, !17, i64 232, !17, i64 236, !17, i64 240, !17, i64 244, !23, i64 248, !17, i64 256, !17, i64 260, !17, i64 264, !17, i64 268, !17, i64 272, !17, i64 276, !17, i64 280, !17, i64 284, !17, i64 288, !17, i64 292, !17, i64 296, !17, i64 300, !23, i64 304, !17, i64 312, !17, i64 316, !17, i64 320, !17, i64 324, !17, i64 328, !22, i64 336, !22, i64 344, !22, i64 352, !22, i64 360, !17, i64 368, !27, i64 376, !27, i64 384, !27, i64 392, !27, i64 400, !17, i64 408, !6, i64 416, !6, i64 424, !23, i64 432, !22, i64 440, !6, i64 448, !6, i64 456, !23, i64 464}
!13 = !{!"p1 _ZTS7AVClass", !6, i64 0}
!14 = !{!"p1 _ZTS13AVInputFormat", !6, i64 0}
!15 = !{!"p1 _ZTS14AVOutputFormat", !6, i64 0}
!16 = !{!"p1 _ZTS11AVIOContext", !6, i64 0}
!17 = !{!"int", !7, i64 0}
!18 = !{!"p2 _ZTS8AVStream", !19, i64 0}
!19 = !{!"any p2 pointer", !6, i64 0}
!20 = !{!"p2 _ZTS13AVStreamGroup", !19, i64 0}
!21 = !{!"p2 _ZTS9AVChapter", !19, i64 0}
!22 = !{!"p1 omnipotent char", !6, i64 0}
!23 = !{!"long", !7, i64 0}
!24 = !{!"p2 _ZTS9AVProgram", !19, i64 0}
!25 = !{!"p1 _ZTS12AVDictionary", !6, i64 0}
!26 = !{!"AVIOInterruptCB", !6, i64 0, !6, i64 8}
!27 = !{!"p1 _ZTS7AVCodec", !6, i64 0}
!28 = !{!29, !29, i64 0}
!29 = !{!"p1 _ZTS8CRCState", !6, i64 0}
!30 = !{!31, !17, i64 0}
!31 = !{!"CRCState", !17, i64 0}
!32 = !{!33, !22, i64 24}
!33 = !{!"AVPacket", !34, i64 0, !23, i64 8, !23, i64 16, !22, i64 24, !17, i64 32, !17, i64 36, !17, i64 40, !35, i64 48, !17, i64 56, !23, i64 64, !23, i64 72, !6, i64 80, !34, i64 88, !36, i64 96}
!34 = !{!"p1 _ZTS11AVBufferRef", !6, i64 0}
!35 = !{!"p1 _ZTS16AVPacketSideData", !6, i64 0}
!36 = !{!"AVRational", !17, i64 0, !17, i64 4}
!37 = !{!33, !17, i64 32}
!38 = !{!12, !16, i64 32}
