; ModuleID = 'bench/ffmpeg/original/crcenc.ll'
source_filename = "bench/ffmpeg/original/crcenc.ll"
target datalayout = "e-m:e-p270:32:32-p271:32:32-p272:64:64-i64:64-i128:128-f80:128-n8:16:32:64-S128"
target triple = "x86_64-pc-linux-gnu"

%struct.FFOutputFormat = type { %struct.AVOutputFormat, i32, i32, ptr, ptr, ptr, ptr, ptr, ptr, ptr, ptr, ptr, ptr, ptr, ptr }
%struct.AVOutputFormat = type { ptr, ptr, ptr, ptr, i32, i32, i32, i32, ptr, ptr }

@.str = private unnamed_addr constant [4 x i8] c"crc\00", align 1
@.str.1 = private unnamed_addr constant [12 x i8] c"CRC testing\00", align 1
@ff_crc_muxer = local_unnamed_addr constant %struct.FFOutputFormat { %struct.AVOutputFormat { ptr @.str, ptr @.str.1, ptr null, ptr null, i32 65536, i32 13, i32 0, i32 128, ptr null, ptr null }, i32 4, i32 0, ptr null, ptr @crc_write_packet, ptr @crc_write_trailer, ptr null, ptr null, ptr null, ptr null, ptr null, ptr null, ptr @crc_init, ptr null, ptr null }, align 8
@.str.2 = private unnamed_addr constant [12 x i8] c"CRC=0x%08x\0A\00", align 1

; Function Attrs: mustprogress nofree nounwind willreturn memory(readwrite, inaccessiblemem: read) uwtable
define internal noundef i32 @crc_write_packet(ptr noundef readonly captures(none) %0, ptr noundef readonly captures(none) %1) #0 {
  %3 = getelementptr inbounds nuw i8, ptr %0, i64 24
  %4 = load ptr, ptr %3, align 8, !tbaa !4
  %5 = load i32, ptr %4, align 4, !tbaa !24
  %6 = getelementptr inbounds nuw i8, ptr %1, i64 24
  %7 = load ptr, ptr %6, align 8, !tbaa !26
  %8 = getelementptr inbounds nuw i8, ptr %1, i64 32
  %9 = load i32, ptr %8, align 8, !tbaa !31
  %10 = sext i32 %9 to i64
  %11 = tail call i32 @av_adler32_update(i32 noundef %5, ptr noundef %7, i64 noundef %10) #5
  store i32 %11, ptr %4, align 4, !tbaa !24
  ret i32 0
}

; Function Attrs: nounwind uwtable
define internal noundef i32 @crc_write_trailer(ptr noundef readonly captures(none) %0) #1 {
  %2 = getelementptr inbounds nuw i8, ptr %0, i64 24
  %3 = load ptr, ptr %2, align 8, !tbaa !4
  %4 = getelementptr inbounds nuw i8, ptr %0, i64 32
  %5 = load ptr, ptr %4, align 8, !tbaa !32
  %6 = load i32, ptr %3, align 4, !tbaa !24
  %7 = tail call i32 (ptr, ptr, ...) @avio_printf(ptr noundef %5, ptr noundef nonnull @.str.2, i32 noundef %6) #6
  ret i32 0
}

; Function Attrs: mustprogress nofree norecurse nosync nounwind willreturn memory(write, argmem: readwrite, inaccessiblemem: none) uwtable
define internal noundef i32 @crc_init(ptr noundef readonly captures(none) %0) #2 {
  %2 = getelementptr inbounds nuw i8, ptr %0, i64 24
  %3 = load ptr, ptr %2, align 8, !tbaa !4
  store i32 1, ptr %3, align 4, !tbaa !24
  ret i32 0
}

; Function Attrs: mustprogress nofree nounwind willreturn memory(read)
declare i32 @av_adler32_update(i32 noundef, ptr noundef, i64 noundef) local_unnamed_addr #3

declare i32 @avio_printf(ptr noundef, ptr noundef, ...) local_unnamed_addr #4


!llvm.module.flags = !{!0, !1, !2, !3}

!0 = !{i32 1, !"wchar_size", i32 4}
!1 = !{i32 8, !"PIC Level", i32 2}
!2 = !{i32 7, !"uwtable", i32 2}
!3 = !{i32 1, !"override-stack-alignment", i32 16}
!4 = !{!5, !7, i64 24}
!5 = !{!"AVFormatContext", !6, i64 0, !10, i64 8, !11, i64 16, !7, i64 24, !12, i64 32, !13, i64 40, !13, i64 44, !14, i64 48, !13, i64 56, !16, i64 64, !13, i64 72, !17, i64 80, !18, i64 88, !19, i64 96, !19, i64 104, !19, i64 112, !13, i64 120, !13, i64 124, !13, i64 128, !19, i64 136, !19, i64 144, !18, i64 152, !13, i64 160, !13, i64 164, !20, i64 168, !13, i64 176, !13, i64 180, !13, i64 184, !13, i64 188, !21, i64 192, !19, i64 200, !13, i64 208, !13, i64 212, !22, i64 216, !13, i64 232, !13, i64 236, !13, i64 240, !13, i64 244, !19, i64 248, !13, i64 256, !13, i64 260, !13, i64 264, !13, i64 268, !13, i64 272, !13, i64 276, !13, i64 280, !13, i64 284, !13, i64 288, !13, i64 292, !13, i64 296, !13, i64 300, !19, i64 304, !13, i64 312, !13, i64 316, !13, i64 320, !13, i64 324, !13, i64 328, !18, i64 336, !18, i64 344, !18, i64 352, !18, i64 360, !13, i64 368, !23, i64 376, !23, i64 384, !23, i64 392, !23, i64 400, !13, i64 408, !7, i64 416, !7, i64 424, !19, i64 432, !18, i64 440, !7, i64 448, !7, i64 456, !19, i64 464}
!6 = !{!"p1 _ZTS7AVClass", !7, i64 0}
!7 = !{!"any pointer", !8, i64 0}
!8 = !{!"omnipotent char", !9, i64 0}
!9 = !{!"Simple C/C++ TBAA"}
!10 = !{!"p1 _ZTS13AVInputFormat", !7, i64 0}
!11 = !{!"p1 _ZTS14AVOutputFormat", !7, i64 0}
!12 = !{!"p1 _ZTS11AVIOContext", !7, i64 0}
!13 = !{!"int", !8, i64 0}
!14 = !{!"p2 _ZTS8AVStream", !15, i64 0}
!15 = !{!"any p2 pointer", !7, i64 0}
!16 = !{!"p2 _ZTS13AVStreamGroup", !15, i64 0}
!17 = !{!"p2 _ZTS9AVChapter", !15, i64 0}
!18 = !{!"p1 omnipotent char", !7, i64 0}
!19 = !{!"long", !8, i64 0}
!20 = !{!"p2 _ZTS9AVProgram", !15, i64 0}
!21 = !{!"p1 _ZTS12AVDictionary", !7, i64 0}
!22 = !{!"AVIOInterruptCB", !7, i64 0, !7, i64 8}
!23 = !{!"p1 _ZTS7AVCodec", !7, i64 0}
!24 = !{!25, !13, i64 0}
!25 = !{!"CRCState", !13, i64 0}
!26 = !{!27, !18, i64 24}
!27 = !{!"AVPacket", !28, i64 0, !19, i64 8, !19, i64 16, !18, i64 24, !13, i64 32, !13, i64 36, !13, i64 40, !29, i64 48, !13, i64 56, !19, i64 64, !19, i64 72, !7, i64 80, !28, i64 88, !30, i64 96}
!28 = !{!"p1 _ZTS11AVBufferRef", !7, i64 0}
!29 = !{!"p1 _ZTS16AVPacketSideData", !7, i64 0}
!30 = !{!"AVRational", !13, i64 0, !13, i64 4}
!31 = !{!27, !13, i64 32}
!32 = !{!5, !12, i64 32}
